(lp0
Vhttp://gtfs.s3.amazonaws.com/abq-ride_20150802_0107.zip
p1
aVhttp://gtfs.s3.amazonaws.com/ac-transit_20150218_1708.zip
p2
aVhttp://gtfs.s3.amazonaws.com/jehiah_20081017_1645.zip
p3
aVhttp://gtfs.s3.amazonaws.com/amtrak_20140723_0354.zip
p4
aVhttp://gtfs.s3.amazonaws.com/addison-county-transit-resources_20150904_0101.zip
p5
aVhttp://gtfs.s3.amazonaws.com/bart-archiver_20140109_0110.zip
p6
aVhttp://gtfs.s3.amazonaws.com/rijard.barnes_20150215_0640.zip
p7
aVhttp://gtfs.s3.amazonaws.com/calaveras-ca-us-archiver_20150223_0105.zip
p8
aVhttp://gtfs.s3.amazonaws.com/sfbay-ferries-archiver_20100127_0320.zip
p9
aVhttp://gtfs.s3.amazonaws.com/sfbay-ferries-ca-us-archiver_20120220_0405.zip
p10
aVhttp://gtfs.s3.amazonaws.com/allegany-county-transit_20130220_0422.zip
p11
aVhttp://gtfs.s3.amazonaws.com/laketahoe-ca-us-archiver_20150628_0105.zip
p12
aVhttp://gtfs.s3.amazonaws.com/amador-transit_20150704_0123.zip
p13
aVhttp://gtfs.s3.amazonaws.com/anaheim-resort-transportation_20150804_0139.zip
p14
aVhttp://gtfs.s3.amazonaws.com/ann-arbor-transportation-authority_20120521_1947.zip
p15
aVhttp://gtfs.s3.amazonaws.com/annapolis-transit_20150811_1647.zip
p16
aVhttp://gtfs.s3.amazonaws.com/humboldt-archiver_20150829_0106.zip
p17
aVhttp://gtfs.s3.amazonaws.com/arlington-transit_20131014_0431.zip
p18
aVhttp://gtfs.s3.amazonaws.com/asheville-transit-service_20150626_0245.zip
p19
aVhttp://gtfs.s3.amazonaws.com/mta-maryland-archiver_20111026_0315.zip
p20
aVhttp://gtfs.s3.amazonaws.com/northeast-oregon-public-transit-archiver_20150729_0137.zip
p21
aVhttp://gtfs.s3.amazonaws.com/basin-transit-service_20141129_1640.zip
p22
aVhttp://gtfs.s3.amazonaws.com/bay-area-rapid-transit_20150804_0108.zip
p23
aVhttp://gtfs.s3.amazonaws.com/massachusetts-archiver_20090912_0208.zip
p24
aVhttp://gtfs.s3.amazonaws.com/sfbay-ferries-ca-us-archiver_20130702_0206.zip
p25
aVhttp://gtfs.s3.amazonaws.com/bear-transit-uc-berkeley-shuttle_20150125_0141.zip
p26
aVhttp://gtfs.s3.amazonaws.com/beaumont-pass-transit_20150626_0228.zip
p27
aVhttp://gtfs.s3.amazonaws.com/bee-line-bus_20100202_0310.zip
p28
aVhttp://gtfs.s3.amazonaws.com/benton-county-transportation_20150702_0113.zip
p29
aVhttp://gtfs.s3.amazonaws.com/berkshire-regional-transportation-authority_20120707_0319.zip
p30
aVhttp://gtfs.s3.amazonaws.com/blacksburg-transit_20140809_0113.zip
p31
aVhttp://gtfs.s3.amazonaws.com/bloomington-transit_20150819_0138.zip
p32
aVhttp://gtfs.s3.amazonaws.com/sfbay-ferries-ca-us-archiver_20130702_0206.zip
p33
aVhttp://gtfs.s3.amazonaws.com/blue-star-bus_20141129_1710.zip
p34
aVhttp://gtfs.s3.amazonaws.com/laketahoe-ca-us-archiver_20120331_0315.zip
p35
aVhttp://gtfs.s3.amazonaws.com/massachusetts-archiver_20090912_0208.zip
p36
aVhttp://gtfs.s3.amazonaws.com/massachusetts-archiver_20090912_0208.zip
p37
aVhttp://gtfs.s3.amazonaws.com/broward-county-transit_20150417_1831.zip
p38
aVhttp://gtfs.s3.amazonaws.com/stanislaus-ca-archiver_20150815_0118.zip
p39
aVhttp://gtfs.s3.amazonaws.com/bustang_20150729_0006.zip
p40
aVhttp://gtfs.s3.amazonaws.com/butte-silver-bow_20141222_0134.zip
p41
aVhttp://gtfs.s3.amazonaws.com/c-tran_20150626_0104.zip
p42
aVhttp://gtfs.s3.amazonaws.com/carta_20140520_1901.zip
p43
aVhttp://gtfs.s3.amazonaws.com/cdta_20150827_0143.zip
p44
aVhttp://gtfs.s3.amazonaws.com/calaveras-transit_20150225_0107.zip
p45
aVhttp://gtfs.s3.amazonaws.com/caltrain_20140826_0542.zip
p46
aVhttp://gtfs.s3.amazonaws.com/caltrain-archiver_20090723_0208.zip
p47
aVhttp://gtfs.s3.amazonaws.com/cape-ann-transportation-authority_20121101_0348.zip
p48
aVhttp://gtfs.s3.amazonaws.com/cape-cod-regional-transit-authority_20130620_0312.zip
p49
aVhttp://gtfs.s3.amazonaws.com/capital-area-transit_20150218_1730.zip
p50
aVhttp://gtfs.s3.amazonaws.com/capital-metro_20141218_0131.zip
p51
aVhttp://gtfs.s3.amazonaws.com/capitol-corridor-joint-powers-authority_20150725_0104.zip
p52
aVhttp://gtfs.s3.amazonaws.com/massachusetts-archiver_20090912_0208.zip
p53
aVhttp://gtfs.s3.amazonaws.com/caravan-airport-transportation_20150710_0148.zip
p54
aVhttp://gtfs.s3.amazonaws.com/cary-transit_20150227_1731.zip
p55
aVhttp://gtfs.s3.amazonaws.com/cascades-east-transit_20150729_0139.zip
p56
aVhttp://gtfs.s3.amazonaws.com/cascades-point_20150902_0113.zip
p57
aVhttp://gtfs.s3.amazonaws.com/mta-maryland-archiver_20111026_0315.zip
p58
aVhttp://gtfs.s3.amazonaws.com/central-ohio-transit-authority_20140902_2141.zip
p59
aVhttp://gtfs.s3.amazonaws.com/stanislaus-ca-archiver_20150815_0118.zip
p60
aVhttp://gtfs.s3.amazonaws.com/champaign-urbana-mass-transit-district_20150819_0120.zip
p61
aVhttp://gtfs.s3.amazonaws.com/chapel-hill-transit_20150227_1732.zip
p62
aVhttp://gtfs.s3.amazonaws.com/massachusetts-archiver_20090912_0208.zip
p63
aVhttp://gtfs.s3.amazonaws.com/charleston-area-regional-transportation-authority_20150626_0344.zip
p64
aVhttp://gtfs.s3.amazonaws.com/charlottesville-transit-service_20150904_0207.zip
p65
aVhttp://gtfs.s3.amazonaws.com/mta-maryland-archiver_20111026_0315.zip
p66
aVhttp://gtfs.s3.amazonaws.com/cherriots_20150829_0148.zip
p67
aVhttp://gtfs.s3.amazonaws.com/chicago-transit-authority_20150719_0142.zip
p68
aVhttp://gtfs.s3.amazonaws.com/citilink_20141201_1722.zip
p69
aVhttp://gtfs.s3.amazonaws.com/city-of-albany-linn-benton-loop-archiver_20130218_0424.zip
p70
aVhttp://gtfs.s3.amazonaws.com/city-of-maricopa_20101014_1900.zip
p71
aVhttp://gtfs.s3.amazonaws.com/city-of-milton-freewater-oregon_20111017_2049.zip
p72
aVhttp://gtfs.s3.amazonaws.com/city-of-sandy_20130113_0422.zip
p73
aVhttp://gtfs.s3.amazonaws.com/kingcounty-archiver_20150626_0127.zip
p74
aVhttp://gtfs.s3.amazonaws.com/citygo_20090102_2309.zip
p75
aVhttp://gtfs.s3.amazonaws.com/clemson-area-transit_20150827_0109.zip
p76
aVhttp://gtfs.s3.amazonaws.com/sonomacounty-ca-us-archiver_20150827_0138.zip
p77
aVhttp://gtfs.s3.amazonaws.com/coach-usa-short-line_20100202_0309.zip
p78
aVhttp://gtfs.s3.amazonaws.com/columbia-area-transit_20141219_0110.zip
p79
aVhttp://gtfs.s3.amazonaws.com/tillamook-archiver_20150902_0114.zip
p80
aVhttp://gtfs.s3.amazonaws.com/community-transit_20150319_0942.zip
p81
aVhttp://gtfs.s3.amazonaws.com/confederated-tribes-of-the-umatilla-indian-reservation_20130129_1036.zip
p82
aVhttp://gtfs.s3.amazonaws.com/coos-county-area-transit_20150804_0158.zip
p83
aVhttp://gtfs.s3.amazonaws.com/corona-cruiser_20141222_0206.zip
p84
aVhttp://gtfs.s3.amazonaws.com/city-of-albany-linn-benton-loop-archiver_20130218_0424.zip
p85
aVhttp://gtfs.s3.amazonaws.com/cottonwood-area-transit_20150313_0205.zip
p86
aVhttp://gtfs.s3.amazonaws.com/county-connection_20150819_0123.zip
p87
aVhttp://gtfs.s3.amazonaws.com/curry-public-transit_20130927_0343.zip
p88
aVhttp://gtfs.s3.amazonaws.com/massachusetts-archiver_20090912_0208.zip
p89
aVhttp://gtfs.s3.amazonaws.com/wmata-archiver_20150904_0152.zip
p90
aVhttp://gtfs.s3.amazonaws.com/dallas-area-rapid-transit_20150807_0157.zip
p91
aVhttp://gtfs.s3.amazonaws.com/delaware-department-of-transportation_20101101_1838.zip
p92
aVhttp://gtfs.s3.amazonaws.com/diamond-express_20150626_0111.zip
p93
aVhttp://gtfs.s3.amazonaws.com/duke-university_20150227_1733.zip
p94
aVhttp://gtfs.s3.amazonaws.com/duluth-transit-authority_20120906_0315.zip
p95
aVhttp://gtfs.s3.amazonaws.com/durham-area-transit-authority_20150227_1734.zip
p96
aVhttp://gtfs.s3.amazonaws.com/eastern-point_20150902_0142.zip
p97
aVhttp://gtfs.s3.amazonaws.com/eastern-sierra-transit-authority_20150729_0205.zip
p98
aVhttp://gtfs.s3.amazonaws.com/elevated-transit_20150626_0309.zip
p99
aVhttp://gtfs.s3.amazonaws.com/eugene-to-bend_20150626_0105.zip
p100
aVhttp://gtfs.s3.amazonaws.com/eugene-to-coos-bay_20141201_1756.zip
p101
aVhttp://gtfs.s3.amazonaws.com/humboldt-archiver_20150829_0106.zip
p102
aVhttp://gtfs.s3.amazonaws.com/fairfax-connector_20150815_0135.zip
p103
aVhttp://gtfs.s3.amazonaws.com/fairfield-and-suisun-transit_20150708_0143.zip
p104
aVhttp://gtfs.s3.amazonaws.com/massachusetts-archiver_20090912_0208.zip
p105
aVhttp://gtfs.s3.amazonaws.com/foothill-transit_20150902_0101.zip
p106
aVhttp://gtfs.s3.amazonaws.com/fort-worth-transportation-authority_20130923_1559.zip
p107
aVhttp://gtfs.s3.amazonaws.com/franklin-regional-transit-authority_20120820_0325.zip
p108
aVhttp://gtfs.s3.amazonaws.com/mta-maryland-archiver_20111026_0315.zip
p109
aVhttp://gtfs.s3.amazonaws.com/fredericton-transit_20130313_1626.zip
p110
aVhttp://gtfs.s3.amazonaws.com/massachusetts-archiver_20090912_0208.zip
p111
aVhttp://gtfs.s3.amazonaws.com/fresno-county-rural-transit-agency_20140628_0146.zip
p112
aVhttp://gtfs.s3.amazonaws.com/go-transit-city-of-oshkosh_20150626_0134.zip
p113
aVhttp://gtfs.s3.amazonaws.com/golden-empire-transit-district_20141022_0117.zip
p114
aVhttp://gtfs.s3.amazonaws.com/sfbay-ferries-ca-us-archiver_20130702_0206.zip
p115
aVhttp://gtfs.s3.amazonaws.com/greater-cleveland-regional-transit-authority_20140529_0333.zip
p116
aVhttp://gtfs.s3.amazonaws.com/green-bay-metro-transit_20110424_0431.zip
p117
aVhttp://gtfs.s3.amazonaws.com/green-mountain-community-network-inc_20150813_0105.zip
p118
aVhttp://gtfs.s3.amazonaws.com/hut-airport-shuttle_20120105_0729.zip
p119
aVhttp://gtfs.s3.amazonaws.com/hampton-roads-transit-hrt_20150827_0108.zip
p120
aVhttp://gtfs.s3.amazonaws.com/sfbay-ferries-ca-us-archiver_20130702_0206.zip
p121
aVhttp://gtfs.s3.amazonaws.com/sonomacounty-ca-us-archiver_20140630_0109.zip
p122
aVhttp://gtfs.s3.amazonaws.com/highdesert-point_20150902_0141.zip
p123
aVhttp://gtfs.s3.amazonaws.com/hillsborough-area-regional-transit_20150717_0155.zip
p124
aVhttp://gtfs.s3.amazonaws.com/laketahoe-ca-us-archiver_20150628_0105.zip
p125
aVhttp://gtfs.s3.amazonaws.com/mta-maryland-archiver_20111026_0315.zip
p126
aVhttp://gtfs.s3.amazonaws.com/huntsville-shuttle_20150702_0150.zip
p127
aVhttp://gtfs.s3.amazonaws.com/massachusetts-archiver_20090912_0208.zip
p128
aVhttp://gtfs.s3.amazonaws.com/indygo_20120905_1753.zip
p129
aVhttp://gtfs.s3.amazonaws.com/intercity-transit_20150712_0140.zip
p130
aVhttp://gtfs.s3.amazonaws.com/irvine-shuttle_20091229_1547.zip
p131
aVhttp://gtfs.s3.amazonaws.com/massachusetts-archiver_20090912_0208.zip
p132
aVhttp://gtfs.s3.amazonaws.com/island-transit_20150223_1552.zip
p133
aVhttp://gtfs.s3.amazonaws.com/jeffco-express_20150626_0258.zip
p134
aVhttp://gtfs.s3.amazonaws.com/jefferson-transit-authority_20140701_0630.zip
p135
aVhttp://gtfs.s3.amazonaws.com/josephinecounty-or-us-archiver_20150626_0241.zip
p136
aVhttp://gtfs.s3.amazonaws.com/kcata_20150904_0140.zip
p137
aVhttp://gtfs.s3.amazonaws.com/kern-regional-transit_20140801_2043.zip
p138
aVhttp://gtfs.s3.amazonaws.com/kern-transit_20150825_0155.zip
p139
aVhttp://gtfs.s3.amazonaws.com/kingcounty-archiver_20150626_0127.zip
p140
aVhttp://gtfs.s3.amazonaws.com/kingcounty-archiver_20150626_0127.zip
p141
aVhttp://gtfs.s3.amazonaws.com/kingsport_20120903_1834.zip
p142
aVhttp://gtfs.s3.amazonaws.com/kitsap-transit_20150729_0156.zip
p143
aVhttp://gtfs.s3.amazonaws.com/lanta_20141029_1942.zip
p144
aVhttp://gtfs.s3.amazonaws.com/laguna-beach-transit_20141222_0147.zip
p145
aVhttp://gtfs.s3.amazonaws.com/lake-transit_20150715_1721.zip
p146
aVhttp://gtfs.s3.amazonaws.com/lane-transit-district_20150313_0210.zip
p147
aVhttp://gtfs.s3.amazonaws.com/lassen-rural-bus_20141201_1836.zip
p148
aVhttp://gtfs.s3.amazonaws.com/lextran_20140118_0122.zip
p149
aVhttp://gtfs.s3.amazonaws.com/lexpress_20090731_0343.zip
p150
aVhttp://gtfs.s3.amazonaws.com/lincoln-county-transit_20150304_0103.zip
p151
aVhttp://gtfs.s3.amazonaws.com/link-transit_20150704_0144.zip
p152
aVhttp://gtfs.s3.amazonaws.com/linn-shuttle_20150723_0709.zip
p153
aVhttp://gtfs.s3.amazonaws.com/long-island-bus_20110825_1140.zip
p154
aVhttp://gtfs.s3.amazonaws.com/long-island-rail-road_20140216_0114.zip
p155
aVhttp://gtfs.s3.amazonaws.com/long-island-railroad_20090825_0512.zip
p156
aVhttp://gtfs.s3.amazonaws.com/la-metro_20101211_0848.zip
p157
aVhttp://gtfs.s3.amazonaws.com/lowell-regional-transit-authority_20121214_0433.zip
p158
aVhttp://gtfs.s3.amazonaws.com/mta-bus-company_20140205_0119.zip
p159
aVhttp://gtfs.s3.amazonaws.com/mta-new-york-city-transit_20150723_2021.zip
p160
aVhttp://gtfs.s3.amazonaws.com/mts_20150829_0110.zip
p161
aVhttp://gtfs.s3.amazonaws.com/mvta-archiver_20150804_0147.zip
p162
aVhttp://gtfs.s3.amazonaws.com/madera-county-transit_20150626_0305.zip
p163
aVhttp://gtfs.s3.amazonaws.com/manatee-county-area-transit_20150704_0145.zip
p164
aVhttp://gtfs.s3.amazonaws.com/rijard.barnes_20150215_0640.zip
p165
aVhttp://gtfs.s3.amazonaws.com/marin-transit_20150902_0109.zip
p166
aVhttp://gtfs.s3.amazonaws.com/mta-maryland-archiver_20150819_0130.zip
p167
aVhttp://gtfs.s3.amazonaws.com/mason-transit_20111111_0413.zip
p168
aVhttp://gtfs.s3.amazonaws.com/massachusetts-archiver_20150823_0121.zip
p169
aVhttp://gtfs.s3.amazonaws.com/massachusetts-archiver_20150823_0121.zip
p170
aVhttp://gtfs.s3.amazonaws.com/megabus-vermont_20150626_0234.zip
p171
aVhttp://gtfs.s3.amazonaws.com/mendocino-transit-authority_20150628_0132.zip
p172
aVhttp://gtfs.s3.amazonaws.com/menlo-park-midday-shuttle_20110303_0345.zip
p173
aVhttp://gtfs.s3.amazonaws.com/merrimack-valley-regional-transit-authority_20130526_0306.zip
p174
aVhttp://gtfs.s3.amazonaws.com/metra_20130308_0424.zip
p175
aVhttp://gtfs.s3.amazonaws.com/metro-los-angeles_20150825_0114.zip
p176
aVhttp://gtfs.s3.amazonaws.com/schwer_20150426_0100.zip
p177
aVhttp://gtfs.s3.amazonaws.com/metro-st-louis_20130916_1522.zip
p178
aVhttp://gtfs.s3.amazonaws.com/rijard.barnes_20150215_0640.zip
p179
aVhttp://gtfs.s3.amazonaws.com/metro-transit-city-of-madison_20150811_0152.zip
p180
aVhttp://gtfs.s3.amazonaws.com/metrowest-regional-transit-authority_20120820_0324.zip
p181
aVhttp://gtfs.s3.amazonaws.com/metrolink_20120204_0419.zip
p182
aVhttp://gtfs.s3.amazonaws.com/metropolitan-atlanta-rapid-transit-authority_20150904_0108.zip
p183
aVhttp://gtfs.s3.amazonaws.com/metropolitan-transit-authority-of-harris-county_20150228_0202.zip
p184
aVhttp://gtfs.s3.amazonaws.com/miami-dade-transit_20150626_0146.zip
p185
aVhttp://gtfs.s3.amazonaws.com/milwaukee-county-transit-system_20150831_0107.zip
p186
aVhttp://gtfs.s3.amazonaws.com/rijard.barnes_20150215_0640.zip
p187
aVhttp://gtfs.s3.amazonaws.com/modesto-area-express_20150819_0107.zip
p188
aVhttp://gtfs.s3.amazonaws.com/monroe-county-transit-authority_20150120_2051.zip
p189
aVhttp://gtfs.s3.amazonaws.com/montachusett-regional-transit-authority_20130530_0310.zip
p190
aVhttp://gtfs.s3.amazonaws.com/montana-transit-mountain-line_20100723_0216.zip
p191
aVhttp://gtfs.s3.amazonaws.com/montgomery-county-md-ride-on_20150903_1811.zip
p192
aVhttp://gtfs.s3.amazonaws.com/mountain-line_20141206_0137.zip
p193
aVhttp://gtfs.s3.amazonaws.com/mountain-line-mutd_20150218_1721.zip
p194
aVhttp://gtfs.s3.amazonaws.com/mountain-metropolitan-transit_20100706_1325.zip
p195
aVhttp://gtfs.s3.amazonaws.com/mountain-rides-transportation-authority-mrta_20140624_0104.zip
p196
aVhttp://gtfs.s3.amazonaws.com/mountain-transit_20150626_0103.zip
p197
aVhttp://gtfs.s3.amazonaws.com/sandy-or-us-archiver_20150804_0200.zip
p198
aVhttp://gtfs.s3.amazonaws.com/nc-state-university-wolfline_20150227_1735.zip
p199
aVhttp://gtfs.s3.amazonaws.com/nfta-metro_20150831_0148.zip
p200
aVhttp://gtfs.s3.amazonaws.com/ddly22000_20141210_1905.zip
p201
aV
p202
aVhttp://gtfs.s3.amazonaws.com/massachusetts-archiver_20090912_0208.zip
p203
aVhttp://gtfs.s3.amazonaws.com/ddly22000_20141210_1905.zip
p204
aVhttp://gtfs.s3.amazonaws.com/laketahoe-ca-us-archiver_20150628_0105.zip
p205
aVhttp://gtfs.s3.amazonaws.com/north-county-transit-district_20150819_0140.zip
p206
aVhttp://gtfs.s3.amazonaws.com/north-indiana-commuter-transportation-district_20100908_0246.zip
p207
aVhttp://gtfs.s3.amazonaws.com/laketahoe-ca-us-archiver_20120620_0312.zip
p208
aVhttp://gtfs.s3.amazonaws.com/laketahoe-ca-us-archiver_20150628_0105.zip
p209
aVhttp://gtfs.s3.amazonaws.com/northwest-point_20150902_0107.zip
p210
aVhttp://gtfs.s3.amazonaws.com/northeast-oregon-public-transit-archiver_20150729_0137.zip
p211
aVhttp://gtfs.s3.amazonaws.com/laketahoe-ca-us-archiver_20150628_0105.zip
p212
aVhttp://gtfs.s3.amazonaws.com/norwalk-transit_20130330_0324.zip
p213
aVhttp://gtfs.s3.amazonaws.com/omnitrans_20150813_0118.zip
p214
aVhttp://gtfs.s3.amazonaws.com/orange-county-transportation-authority_20150626_0302.zip
p215
aVhttp://gtfs.s3.amazonaws.com/patco_20150908_1521.zip
p216
aVhttp://gtfs.s3.amazonaws.com/path_20120517_1620.zip
p217
aVhttp://gtfs.s3.amazonaws.com/psta_20150626_0347.zip
p218
aVhttp://gtfs.s3.amazonaws.com/pvta_20150823_0119.zip
p219
aVhttp://gtfs.s3.amazonaws.com/pace-suburban-bus-service_20121002_0305.zip
p220
aVhttp://gtfs.s3.amazonaws.com/palo-verde-valley-transit-agency_20150626_0346.zip
p221
aVhttp://gtfs.s3.amazonaws.com/people-mover_20150203_2012.zip
p222
aVhttp://gtfs.s3.amazonaws.com/plumas-transit_20150225_0108.zip
p223
aVhttp://gtfs.s3.amazonaws.com/rijard.barnes_20150215_0640.zip
p224
aVhttp://gtfs.s3.amazonaws.com/adamjernst_20081211_0356.zip
p225
aVhttp://gtfs.s3.amazonaws.com/port-authority-of-allegheny-county_20140619_0109.zip
p226
aVhttp://gtfs.s3.amazonaws.com/port-authority-of-new-york-new-jersey_20150626_0310.zip
p227
aVhttp://gtfs.s3.amazonaws.com/porter-stage-lines_20131121_0109.zip
p228
aVhttp://gtfs.s3.amazonaws.com/rijard.barnes_20150215_0640.zip
p229
aVhttp://gtfs.s3.amazonaws.com/pulaski-area-transit_20141222_0136.zip
p230
aVhttp://gtfs.s3.amazonaws.com/rtc-ride_20141220_0137.zip
p231
aVhttp://gtfs.s3.amazonaws.com/rvtd_20150508_1951.zip
p232
aVhttp://gtfs.s3.amazonaws.com/roanoke-va-us-archiver_20150214_0144.zip
p233
aVhttp://gtfs.s3.amazonaws.com/radford-transit_20150902_0112.zip
p234
aVhttp://gtfs.s3.amazonaws.com/razorback-transit_20090814_1752.zip
p235
aVhttp://gtfs.s3.amazonaws.com/redding-area-bus-authority_20150823_0122.zip
p236
aVhttp://gtfs.s3.amazonaws.com/redwood-coast-transit_20150904_0111.zip
p237
aVhttp://gtfs.s3.amazonaws.com/humboldt-archiver_20150829_0106.zip
p238
aVhttp://gtfs.s3.amazonaws.com/regional-transportation-authority_20100809_1956.zip
p239
aVhttp://gtfs.s3.amazonaws.com/regional-transportation-commission-of-southern-nevada_20130315_0353.zip
p240
aVhttp://gtfs.s3.amazonaws.com/regional-transportation-district_20150904_0211.zip
p241
aVhttp://gtfs.s3.amazonaws.com/rhode-island-public-transit-authority_20120920_0331.zip
p242
aVhttp://gtfs.s3.amazonaws.com/rhody-express_20150710_0159.zip
p243
aVhttp://gtfs.s3.amazonaws.com/ride-connection_20150712_0142.zip
p244
aVhttp://gtfs.s3.amazonaws.com/rio-vista-delta-breeze_20131212_0124.zip
p245
aVhttp://gtfs.s3.amazonaws.com/rivercities-transit_20150216_0135.zip
p246
aVhttp://gtfs.s3.amazonaws.com/rochester-city-lines_20141220_0104.zip
p247
aVhttp://gtfs.s3.amazonaws.com/rochester-genesee-regional-transportation-authority_20150827_0111.zip
p248
aVhttp://gtfs.s3.amazonaws.com/rockland-county-department-of-public-transportation_20121220_2018.zip
p249
aVhttp://gtfs.s3.amazonaws.com/josephinecounty-or-us-archiver_20150626_0241.zip
p250
aVhttp://gtfs.s3.amazonaws.com/roseville-transit_20150214_0153.zip
p251
aVhttp://gtfs.s3.amazonaws.com/rural-community-transportation_20150626_0314.zip
p252
aVhttp://gtfs.s3.amazonaws.com/septa_20150829_0121.zip
p253
aVhttp://gtfs.s3.amazonaws.com/smart_20101107_0850.zip
p254
aVhttp://gtfs.s3.amazonaws.com/sacramento-regional-transit_20150905_0103.zip
p255
aVhttp://gtfs.s3.amazonaws.com/sage-stage_20150806_2359.zip
p256
aVhttp://gtfs.s3.amazonaws.com/massachusetts-archiver_20090912_0208.zip
p257
aVhttp://gtfs.s3.amazonaws.com/samtrans_20130704_1259.zip
p258
aVhttp://gtfs.s3.amazonaws.com/san-benito-county-express_20150827_0154.zip
p259
aVhttp://gtfs.s3.amazonaws.com/san-francisco-municipal-transportation-agency_20150809_0207.zip
p260
aVhttp://gtfs.s3.amazonaws.com/san-joaquin-regional-transit-district-rtd_20150815_0122.zip
p261
aVhttp://gtfs.s3.amazonaws.com/view2gt_20150912_2037.zip
p262
aVhttp://gtfs.s3.amazonaws.com/sandy-or-us-archiver_20150804_0200.zip
p263
aVhttp://gtfs.s3.amazonaws.com/santa-cruz-metro_20150829_0140.zip
p264
aVhttp://gtfs.s3.amazonaws.com/santa-rosa-citybus_20130423_1906.zip
p265
aVhttp://gtfs.s3.amazonaws.com/sarasota-county-area-transit_20120511_0303.zip
p266
aVhttp://gtfs.s3.amazonaws.com/rijard.barnes_20150215_0640.zip
p267
aVhttp://gtfs.s3.amazonaws.com/mountain-line-archiver_20110312_0338.zip
p268
aVhttp://gtfs.s3.amazonaws.com/rijard.barnes_20150215_0640.zip
p269
aVhttp://gtfs.s3.amazonaws.com/schwer_20150426_0100.zip
p270
aVhttp://gtfs.s3.amazonaws.com/shuttle-um-department-of-transportation-services_20100305_1456.zip
p271
aVhttp://gtfs.s3.amazonaws.com/sioux-area-metro_20150626_0306.zip
p272
aVhttp://gtfs.s3.amazonaws.com/siskiyou-transit-and-general-express_20150106_0149.zip
p273
aVhttp://gtfs.s3.amazonaws.com/soltrans_20150825_0141.zip
p274
aVhttp://gtfs.s3.amazonaws.com/sonomacounty-ca-us-archiver_20150827_0138.zip
p275
aVhttp://gtfs.s3.amazonaws.com/kingcounty-archiver_20150626_0127.zip
p276
aVhttp://gtfs.s3.amazonaws.com/south-lane-wheels_20150626_0119.zip
p277
aVhttp://gtfs.s3.amazonaws.com/south-metro-area-regional-transit_20141228_0123.zip
p278
aVhttp://gtfs.s3.amazonaws.com/rijard.barnes_20150215_0640.zip
p279
aVhttp://gtfs.s3.amazonaws.com/space-coast-area-transit_20150704_0158.zip
p280
aVhttp://gtfs.s3.amazonaws.com/spokane-transit-authority_20150812_1638.zip
p281
aVhttp://gtfs.s3.amazonaws.com/laketahoe-ca-us-archiver_20150628_0105.zip
p282
aVhttp://gtfs.s3.amazonaws.com/stagecoach-transportation-services_20150729_0203.zip
p283
aVhttp://gtfs.s3.amazonaws.com/stanislaus-ca-archiver_20150815_0118.zip
p284
aVhttp://gtfs.s3.amazonaws.com/massachusetts-archiver_20090912_0208.zip
p285
aVhttp://gtfs.s3.amazonaws.com/suntran_20150829_0115.zip
p286
aVhttp://gtfs.s3.amazonaws.com/sunline-transit-agency_20150904_0156.zip
p287
aVhttp://gtfs.s3.amazonaws.com/tillamook-archiver_20150902_0114.zip
p288
aVhttp://gtfs.s3.amazonaws.com/tehama-archiver_20141230_0108.zip
p289
aVhttp://gtfs.s3.amazonaws.com/swan-island-tma_20141219_0108.zip
p290
aVhttp://gtfs.s3.amazonaws.com/ian@pandav.us_20130303_2028.zip
p291
aVhttp://gtfs.s3.amazonaws.com/tappanzee-express_20100116_0326.zip
p292
aVhttp://gtfs.s3.amazonaws.com/laketahoe-ca-us-archiver_20150628_0105.zip
p293
aVhttp://gtfs.s3.amazonaws.com/tehama-archiver_20141230_0108.zip
p294
aVhttp://gtfs.s3.amazonaws.com/the-bus_20150626_0313.zip
p295
aVhttp://gtfs.s3.amazonaws.com/the-bus-marble-valley-regional-transit-district_20150904_0145.zip
p296
aVhttp://gtfs.s3.amazonaws.com/the-current_20141217_1802.zip
p297
aVhttp://gtfs.s3.amazonaws.com/the-jo_20150826_1855.zip
p298
aVhttp://gtfs.s3.amazonaws.com/the-metro_20110104_0843.zip
p299
aVhttp://gtfs.s3.amazonaws.com/the-shuttle-inc_20141224_0137.zip
p300
aVhttp://gtfs.s3.amazonaws.com/thebus_20130419_0809.zip
p301
aVhttp://gtfs.s3.amazonaws.com/thousand-oaks-transit_20140820_1713.zip
p302
aVhttp://gtfs.s3.amazonaws.com/tillamook-archiver_20150902_0114.zip
p303
aVhttp://gtfs.s3.amazonaws.com/topeka-metro_20121026_2234.zip
p304
aVhttp://gtfs.s3.amazonaws.com/laketahoe-ca-us-archiver_20150628_0105.zip
p305
aVhttp://gtfs.s3.amazonaws.com/transit-authority-of-northern-kentucky_20141225_0110.zip
p306
aVhttp://gtfs.s3.amazonaws.com/tri-rail_20090129_0554.zip
p307
aVhttp://gtfs.s3.amazonaws.com/trimet-archiver_20150904_0209.zip
p308
aVhttp://gtfs.s3.amazonaws.com/triangle-transit_20150227_1741.zip
p309
aVhttp://gtfs.s3.amazonaws.com/triangle-transit-express_20150227_1736.zip
p310
aVhttp://gtfs.s3.amazonaws.com/trinity-transit_20150626_0129.zip
p311
aVhttp://gtfs.s3.amazonaws.com/u-trans_20150626_0124.zip
p312
aVhttp://gtfs.s3.amazonaws.com/unitrans-davis_20150827_0107.zip
p313
aVhttp://gtfs.s3.amazonaws.com/university-of-michigan-transit-services_20150906_0103.zip
p314
aVhttp://gtfs.s3.amazonaws.com/rijard.barnes_20150215_0640.zip
p315
aVhttp://gtfs.s3.amazonaws.com/utah-transit-authority_20150812_1512.zip
p316
aVhttp://gtfs.s3.amazonaws.com/via-metropolitan-transit_20150904_0139.zip
p317
aVhttp://gtfs.s3.amazonaws.com/roanoke-va-us-archiver_20150214_0144.zip
p318
aVhttp://gtfs.s3.amazonaws.com/valley-retriever_20150626_0125.zip
p319
aVhttp://gtfs.s3.amazonaws.com/valley-transit_20130719_0503.zip
p320
aVhttp://gtfs.s3.amazonaws.com/verde-lynx_20141230_0123.zip
p321
aVhttp://gtfs.s3.amazonaws.com/vermont-translines_20150626_0102.zip
p322
aVhttp://gtfs.s3.amazonaws.com/victor-valley-transit-authority_20150630_0113.zip
p323
aVhttp://gtfs.s3.amazonaws.com/massachusetts-archiver_20090912_0208.zip
p324
aVhttp://gtfs.s3.amazonaws.com/vineyard-transit-authority_20130530_0309.zip
p325
aVhttp://gtfs.s3.amazonaws.com/virginia-railway-express_20150905_0104.zip
p326
aVhttp://gtfs.s3.amazonaws.com/northeast-oregon-public-transit-archiver_20150729_0137.zip
p327
aVhttp://gtfs.s3.amazonaws.com/mvta-archiver_20150804_0147.zip
p328
aVhttp://gtfs.s3.amazonaws.com/waukesha-county-transit_20150207_0137.zip
p329
aVhttp://gtfs.s3.amazonaws.com/wave-transit_20150626_0205.zip
p330
aVhttp://gtfs.s3.amazonaws.com/woodburn-transit_20150626_0131.zip
p331
aVhttp://gtfs.s3.amazonaws.com/yakima-transit_20150301_1148.zip
p332
aVhttp://gtfs.s3.amazonaws.com/yolobus_20121208_0411.zip
p333
aVhttp://gtfs.s3.amazonaws.com/yosemite-ca-usarchiver_20150626_0123.zip
p334
aVhttp://gtfs.s3.amazonaws.com/yosemite-ca-usarchiver_20150626_0123.zip
p335
aVhttp://gtfs.s3.amazonaws.com/yuba-sutter-transit_20150904_0159.zip
p336
aVhttp://gtfs.s3.amazonaws.com/etrans_20150708_0149.zip
p337
aVhttp://gtfs.s3.amazonaws.com/jehiah_20081017_1645.zip
p338
a.